target datalayout = "e-m:e-p270:32:32-p271:32:32-p272:64:64-i64:64-i128:128-f80:128-n8:16:32:64-S128"
target triple = "x86_64-pc-linux-gnu"

; Function Attrs: mustprogress nounwind uwtable
define hidden void @_ZN11JvmtiExport21decode_version_valuesEiPiS0_S0_(i32 noundef %0, ptr noundef %1, ptr noundef %2, ptr noundef %3) #1 align 2 {
  %5 = alloca i32, align 4
  %6 = alloca ptr, align 8
  %7 = alloca ptr, align 8
  %8 = alloca ptr, align 8
  store i32 %0, ptr %5, align 4
  store ptr %1, ptr %6, align 8
  store ptr %2, ptr %7, align 8
  store ptr %3, ptr %8, align 8
  %9 = load i32, ptr %5, align 4
  %10 = and i32 %9, 268369920
  %11 = ashr i32 %10, 16
  %12 = load ptr, ptr %6, align 8
  store i32 %11, ptr %12, align 4
  %13 = load i32, ptr %5, align 4
  %14 = and i32 %13, 65280
  %15 = ashr i32 %14, 8
  %16 = load ptr, ptr %7, align 8
  store i32 %15, ptr %16, align 4
  %17 = load i32, ptr %5, align 4
  %18 = and i32 %17, 255
  %19 = ashr i32 %18, 0
  %20 = load ptr, ptr %8, align 8
  store i32 %19, ptr %20, align 4
  ret void
}