; Function Attrs: mustprogress nofree norecurse nosync nounwind willreturn memory(argmem: write) uwtable
define hidden void @_ZN11JvmtiExport21decode_version_valuesEiPiS0_S0_(i32 noundef %0, ptr nocapture noundef writeonly %1, ptr nocapture noundef writeonly %2, ptr nocapture noundef writeonly %3) local_unnamed_addr #2 align 2 {
  %5 = lshr i32 %0, 16
  %6 = and i32 %5, 4095
  store i32 %6, ptr %1, align 4
  %7 = lshr i32 %0, 8
  %8 = and i32 %7, 255
  store i32 %8, ptr %2, align 4
  %9 = and i32 %0, 255
  store i32 %9, ptr %3, align 4
  ret void
}